; Function Attrs: mustprogress nounwind uwtable
define hidden void @_ZN11PhaseOutput7installEv(ptr noundef nonnull align 8 dereferenceable(700) %0) local_unnamed_addr #0 align 2 {
  %2 = getelementptr inbounds i8, ptr %0, i64 8
  %3 = load ptr, ptr %2, align 8
  %4 = getelementptr inbounds i8, ptr %3, i64 27
  %5 = load i8, ptr %4, align 1
  %6 = trunc i8 %5 to i1
  br i1 %6, label %7, label %_ZN11PhaseOutput12install_stubEPKc.exit

7:                                                ; preds = %1
  %8 = getelementptr inbounds i8, ptr %3, i64 64
  %9 = load ptr, ptr %8, align 8
  %.not = icmp eq ptr %9, null
  br i1 %.not, label %36, label %10

10:                                               ; preds = %7
  %11 = getelementptr inbounds i8, ptr %3, i64 352
  %12 = load ptr, ptr %11, align 8
  %13 = getelementptr inbounds i8, ptr %12, i64 88
  %14 = load ptr, ptr %13, align 8
  %15 = icmp ne ptr %14, null
  %16 = getelementptr inbounds i8, ptr %3, i64 376
  %17 = load ptr, ptr %16, align 8
  %18 = icmp ne ptr %17, null
  %19 = select i1 %15, i1 true, i1 %18
  br i1 %19, label %_ZN11PhaseOutput12install_stubEPKc.exit, label %20

20:                                               ; preds = %10
  %21 = getelementptr inbounds i8, ptr %3, i64 72
  %22 = load ptr, ptr %21, align 8
  %23 = getelementptr inbounds i8, ptr %0, i64 16
  %24 = getelementptr inbounds i8, ptr %0, i64 576
  %25 = load i32, ptr %24, align 8
  %26 = ashr i32 %25, 1
  %27 = getelementptr inbounds i8, ptr %0, i64 544
  %28 = load ptr, ptr %27, align 8
  %29 = tail call noundef ptr @_ZN11RuntimeStub16new_runtime_stubEPKcP10CodeBuffersiP9OopMapSetbb(ptr noundef %22, ptr noundef nonnull %23, i16 noundef signext -1, i32 noundef %26, ptr noundef %28, i1 noundef zeroext false, i1 noundef zeroext true) #14
  %30 = load ptr, ptr %2, align 8
  %31 = getelementptr inbounds i8, ptr %29, i64 36
  %32 = load i32, ptr %31, align 4
  %33 = sext i32 %32 to i64
  %34 = getelementptr inbounds i8, ptr %29, i64 %33
  %35 = getelementptr inbounds i8, ptr %30, i64 80
  store ptr %34, ptr %35, align 8
  br label %_ZN11PhaseOutput12install_stubEPKc.exit

36:                                               ; preds = %7
  %37 = getelementptr inbounds i8, ptr %3, i64 32
  %38 = load ptr, ptr %37, align 8
  %39 = getelementptr inbounds i8, ptr %3, i64 40
  %40 = load i32, ptr %39, align 8
  %41 = load ptr, ptr getelementptr inbounds (i8, ptr @_ZN13CompileBroker10_compilersE, i64 8), align 8
  %42 = getelementptr inbounds i8, ptr %3, i64 125
  %43 = load i8, ptr %42, align 1
  %44 = trunc i8 %43 to i1
  %45 = getelementptr inbounds i8, ptr %3, i64 132
  %46 = load i32, ptr %45, align 4
  %47 = tail call noundef zeroext i1 @_ZN13SharedRuntime14is_wide_vectorEi(i32 noundef %46) #14
  tail call void @_ZN11PhaseOutput12install_codeEP8ciMethodiP16AbstractCompilerbb(ptr noundef nonnull align 8 dereferenceable(700) %0, ptr noundef %38, i32 noundef %40, ptr noundef %41, i1 noundef zeroext %44, i1 zeroext poison)
  br label %_ZN11PhaseOutput12install_stubEPKc.exit

_ZN11PhaseOutput12install_stubEPKc.exit:          ; preds = %20, %10, %36, %1
  ret void
}